target datalayout = "e-m:e-p270:32:32-p271:32:32-p272:64:64-i64:64-i128:128-f80:128-n8:16:32:64-S128"
target triple = "x86_64-pc-linux-gnu"

%struct.validator = type { i32, i32 }
%struct._ts = type { ptr, ptr, ptr, i64, %struct.anon, i32, i32, i32, i32, i32, i32, i32, i32, ptr, ptr, ptr, ptr, ptr, ptr, ptr, ptr, i32, ptr, i64, i64, ptr, i64, i32, ptr, ptr, ptr, i64, i64, ptr, ptr, ptr, %struct._err_stackitem, ptr, i64, ptr, ptr }
%struct.anon = type { i32 }
%struct._err_stackitem = type { ptr, ptr }
%struct._mod = type { i32, %union.anon }
%union.anon = type { %struct.anon.0 }
%struct.anon.0 = type { ptr, ptr }
%struct.anon.1 = type { ptr }
%struct.anon.2 = type { ptr }
%struct.anon.3 = type { ptr, ptr }
%struct.asdl_expr_seq = type { i64, ptr, [1 x ptr] }

@PyExc_SystemError = external global ptr, align 8
@.str = private unnamed_addr constant [23 x i8] c"impossible module node\00", align 1
@.str.1 = private unnamed_addr constant [61 x i8] c"AST validator recursion depth mismatch (before=%d, after=%d)\00", align 1
@_Py_tss_tstate = external thread_local global ptr, align 8
@PyExc_ValueError = external global ptr, align 8
@.str.73 = private unnamed_addr constant [35 x i8] c"None disallowed in expression list\00", align 1

; Function Attrs: nounwind uwtable
define internal i32 @validate_exprs(ptr noundef %0, ptr noundef %1, i32 noundef %2, i32 noundef %3) #0 {
  %5 = alloca i32, align 4
  %6 = alloca ptr, align 8
  %7 = alloca ptr, align 8
  %8 = alloca i32, align 4
  %9 = alloca i32, align 4
  %10 = alloca i64, align 8
  %11 = alloca i32, align 4
  %12 = alloca ptr, align 8
  store ptr %0, ptr %6, align 8, !tbaa !31
  store ptr %1, ptr %7, align 8, !tbaa !33
  store i32 %2, ptr %8, align 4, !tbaa !9
  store i32 %3, ptr %9, align 4, !tbaa !9
  call void @llvm.lifetime.start.p0(i64 8, ptr %10) #6
  store i64 0, ptr %10, align 8, !tbaa !34
  br label %13

13:                                               ; preds = %52, %4
  %14 = load i64, ptr %10, align 8, !tbaa !34
  %15 = load ptr, ptr %7, align 8, !tbaa !33
  %16 = icmp eq ptr %15, null
  br i1 %16, label %17, label %18

17:                                               ; preds = %13
  br label %22

18:                                               ; preds = %13
  %19 = load ptr, ptr %7, align 8, !tbaa !33
  %20 = getelementptr inbounds nuw %struct.asdl_expr_seq, ptr %19, i32 0, i32 0
  %21 = load i64, ptr %20, align 8, !tbaa !35
  br label %22

22:                                               ; preds = %18, %17
  %23 = phi i64 [ 0, %17 ], [ %21, %18 ]
  %24 = icmp slt i64 %14, %23
  br i1 %24, label %26, label %25

25:                                               ; preds = %22
  store i32 2, ptr %11, align 4
  br label %55

26:                                               ; preds = %22
  call void @llvm.lifetime.start.p0(i64 8, ptr %12) #6
  %27 = load ptr, ptr %7, align 8, !tbaa !33
  %28 = getelementptr inbounds nuw %struct.asdl_expr_seq, ptr %27, i32 0, i32 2
  %29 = load i64, ptr %10, align 8, !tbaa !34
  %30 = getelementptr [1 x ptr], ptr %28, i64 0, i64 %29
  %31 = load ptr, ptr %30, align 8, !tbaa !41
  store ptr %31, ptr %12, align 8, !tbaa !41
  %32 = load ptr, ptr %12, align 8, !tbaa !41
  %33 = icmp ne ptr %32, null
  br i1 %33, label %34, label %42

34:                                               ; preds = %26
  %35 = load ptr, ptr %6, align 8, !tbaa !31
  %36 = load ptr, ptr %12, align 8, !tbaa !41
  %37 = load i32, ptr %8, align 4, !tbaa !9
  %38 = call i32 @validate_expr(ptr noundef %35, ptr noundef %36, i32 noundef %37)
  %39 = icmp ne i32 %38, 0
  br i1 %39, label %41, label %40

40:                                               ; preds = %34
  store i32 0, ptr %5, align 4
  store i32 1, ptr %11, align 4
  br label %49

41:                                               ; preds = %34
  br label %48

42:                                               ; preds = %26
  %43 = load i32, ptr %9, align 4, !tbaa !9
  %44 = icmp ne i32 %43, 0
  br i1 %44, label %47, label %45

45:                                               ; preds = %42
  %46 = load ptr, ptr @PyExc_ValueError, align 8, !tbaa !30
  call void @PyErr_SetString(ptr noundef %46, ptr noundef @.str.73)
  store i32 0, ptr %5, align 4
  store i32 1, ptr %11, align 4
  br label %49

47:                                               ; preds = %42
  br label %48

48:                                               ; preds = %47, %41
  store i32 0, ptr %11, align 4
  br label %49

49:                                               ; preds = %48, %45, %40
  call void @llvm.lifetime.end.p0(i64 8, ptr %12) #6
  %50 = load i32, ptr %11, align 4
  switch i32 %50, label %55 [
    i32 0, label %51
  ]

51:                                               ; preds = %49
  br label %52

52:                                               ; preds = %51
  %53 = load i64, ptr %10, align 8, !tbaa !34
  %54 = add i64 %53, 1
  store i64 %54, ptr %10, align 8, !tbaa !34
  br label %13, !llvm.loop !49

55:                                               ; preds = %49, %25
  call void @llvm.lifetime.end.p0(i64 8, ptr %10) #6
  %56 = load i32, ptr %11, align 4
  switch i32 %56, label %60 [
    i32 2, label %57
    i32 1, label %58
  ]

57:                                               ; preds = %55
  store i32 1, ptr %5, align 4
  br label %58

58:                                               ; preds = %57, %55
  %59 = load i32, ptr %5, align 4
  ret i32 %59

60:                                               ; preds = %55
  unreachable
}

; Function Attrs: inlinehint nounwind uwtable
define internal ptr @_PyThreadState_GET() #2 {
  %1 = call align 8 ptr @llvm.threadlocal.address.p0(ptr align 8 @_Py_tss_tstate)
  %2 = load ptr, ptr %1, align 8, !tbaa !11
  ret ptr %2
}

; Function Attrs: nounwind uwtable
define hidden i32 @_PyAST_Validate(ptr noundef %0) #0 {
  %2 = alloca i32, align 4
  %3 = alloca ptr, align 8
  %4 = alloca i32, align 4
  %5 = alloca %struct.validator, align 4
  %6 = alloca ptr, align 8
  %7 = alloca i32, align 4
  %8 = alloca i32, align 4
  %9 = alloca i32, align 4
  store ptr %0, ptr %3, align 8, !tbaa !4
  call void @llvm.lifetime.start.p0(i64 4, ptr %4) #6
  store i32 -1, ptr %4, align 4, !tbaa !9
  call void @llvm.lifetime.start.p0(i64 8, ptr %5) #6
  call void @llvm.lifetime.start.p0(i64 8, ptr %6) #6
  call void @llvm.lifetime.start.p0(i64 4, ptr %7) #6
  %10 = call ptr @_PyThreadState_GET()
  store ptr %10, ptr %6, align 8, !tbaa !11
  %11 = load ptr, ptr %6, align 8, !tbaa !11
  %12 = icmp ne ptr %11, null
  br i1 %12, label %14, label %13

13:                                               ; preds = %1
  store i32 0, ptr %2, align 4
  store i32 1, ptr %8, align 4
  br label %83

14:                                               ; preds = %1
  call void @llvm.lifetime.start.p0(i64 4, ptr %9) #6
  %15 = load ptr, ptr %6, align 8, !tbaa !11
  %16 = getelementptr inbounds nuw %struct._ts, ptr %15, i32 0, i32 9
  %17 = load i32, ptr %16, align 4, !tbaa !13
  %18 = sub i32 10000, %17
  store i32 %18, ptr %9, align 4, !tbaa !9
  %19 = load i32, ptr %9, align 4, !tbaa !9
  store i32 %19, ptr %7, align 4, !tbaa !9
  %20 = load i32, ptr %7, align 4, !tbaa !9
  %21 = getelementptr inbounds nuw %struct.validator, ptr %5, i32 0, i32 0
  store i32 %20, ptr %21, align 4, !tbaa !24
  %22 = getelementptr inbounds nuw %struct.validator, ptr %5, i32 0, i32 1
  store i32 10000, ptr %22, align 4, !tbaa !26
  %23 = load ptr, ptr %3, align 8, !tbaa !4
  %24 = getelementptr inbounds nuw %struct._mod, ptr %23, i32 0, i32 0
  %25 = load i32, ptr %24, align 8, !tbaa !27
  switch i32 %25, label %61 [
    i32 1, label %26
    i32 2, label %32
    i32 3, label %38
    i32 4, label %44
  ]

26:                                               ; preds = %14
  %27 = load ptr, ptr %3, align 8, !tbaa !4
  %28 = getelementptr inbounds nuw %struct._mod, ptr %27, i32 0, i32 1
  %29 = getelementptr inbounds nuw %struct.anon.0, ptr %28, i32 0, i32 0
  %30 = load ptr, ptr %29, align 8, !tbaa !29
  %31 = call i32 @validate_stmts(ptr noundef %5, ptr noundef %30)
  store i32 %31, ptr %4, align 4, !tbaa !9
  br label %61

32:                                               ; preds = %14
  %33 = load ptr, ptr %3, align 8, !tbaa !4
  %34 = getelementptr inbounds nuw %struct._mod, ptr %33, i32 0, i32 1
  %35 = getelementptr inbounds nuw %struct.anon.1, ptr %34, i32 0, i32 0
  %36 = load ptr, ptr %35, align 8, !tbaa !29
  %37 = call i32 @validate_stmts(ptr noundef %5, ptr noundef %36)
  store i32 %37, ptr %4, align 4, !tbaa !9
  br label %61

38:                                               ; preds = %14
  %39 = load ptr, ptr %3, align 8, !tbaa !4
  %40 = getelementptr inbounds nuw %struct._mod, ptr %39, i32 0, i32 1
  %41 = getelementptr inbounds nuw %struct.anon.2, ptr %40, i32 0, i32 0
  %42 = load ptr, ptr %41, align 8, !tbaa !29
  %43 = call i32 @validate_expr(ptr noundef %5, ptr noundef %42, i32 noundef 1)
  store i32 %43, ptr %4, align 4, !tbaa !9
  br label %61

44:                                               ; preds = %14
  %45 = load ptr, ptr %3, align 8, !tbaa !4
  %46 = getelementptr inbounds nuw %struct._mod, ptr %45, i32 0, i32 1
  %47 = getelementptr inbounds nuw %struct.anon.3, ptr %46, i32 0, i32 0
  %48 = load ptr, ptr %47, align 8, !tbaa !29
  %49 = call i32 @validate_exprs(ptr noundef %5, ptr noundef %48, i32 noundef 1, i32 noundef 0)
  %50 = icmp ne i32 %49, 0
  br i1 %50, label %51, label %58

51:                                               ; preds = %44
  %52 = load ptr, ptr %3, align 8, !tbaa !4
  %53 = getelementptr inbounds nuw %struct._mod, ptr %52, i32 0, i32 1
  %54 = getelementptr inbounds nuw %struct.anon.3, ptr %53, i32 0, i32 1
  %55 = load ptr, ptr %54, align 8, !tbaa !29
  %56 = call i32 @validate_expr(ptr noundef %5, ptr noundef %55, i32 noundef 1)
  %57 = icmp ne i32 %56, 0
  br label %58

58:                                               ; preds = %51, %44
  %59 = phi i1 [ false, %44 ], [ %57, %51 ]
  %60 = zext i1 %59 to i32
  store i32 %60, ptr %4, align 4, !tbaa !9
  br label %61

61:                                               ; preds = %14, %58, %38, %32, %26
  %62 = load i32, ptr %4, align 4, !tbaa !9
  %63 = icmp slt i32 %62, 0
  br i1 %63, label %64, label %66

64:                                               ; preds = %61
  %65 = load ptr, ptr @PyExc_SystemError, align 8, !tbaa !30
  call void @PyErr_SetString(ptr noundef %65, ptr noundef @.str)
  store i32 0, ptr %2, align 4
  store i32 1, ptr %8, align 4
  br label %82

66:                                               ; preds = %61
  %67 = load i32, ptr %4, align 4, !tbaa !9
  %68 = icmp ne i32 %67, 0
  br i1 %68, label %69, label %80

69:                                               ; preds = %66
  %70 = getelementptr inbounds nuw %struct.validator, ptr %5, i32 0, i32 0
  %71 = load i32, ptr %70, align 4, !tbaa !24
  %72 = load i32, ptr %7, align 4, !tbaa !9
  %73 = icmp ne i32 %71, %72
  br i1 %73, label %74, label %80

74:                                               ; preds = %69
  %75 = load ptr, ptr @PyExc_SystemError, align 8, !tbaa !30
  %76 = load i32, ptr %7, align 4, !tbaa !9
  %77 = getelementptr inbounds nuw %struct.validator, ptr %5, i32 0, i32 0
  %78 = load i32, ptr %77, align 4, !tbaa !24
  %79 = call ptr (ptr, ptr, ...) @PyErr_Format(ptr noundef %75, ptr noundef @.str.1, i32 noundef %76, i32 noundef %78)
  store i32 0, ptr %2, align 4
  store i32 1, ptr %8, align 4
  br label %82

80:                                               ; preds = %69, %66
  %81 = load i32, ptr %4, align 4, !tbaa !9
  store i32 %81, ptr %2, align 4
  store i32 1, ptr %8, align 4
  br label %82

82:                                               ; preds = %80, %74, %64
  call void @llvm.lifetime.end.p0(i64 4, ptr %9) #6
  br label %83

83:                                               ; preds = %82, %13
  call void @llvm.lifetime.end.p0(i64 4, ptr %7) #6
  call void @llvm.lifetime.end.p0(i64 8, ptr %6) #6
  call void @llvm.lifetime.end.p0(i64 8, ptr %5) #6
  call void @llvm.lifetime.end.p0(i64 4, ptr %4) #6
  %84 = load i32, ptr %2, align 4
  ret i32 %84
}