; Function Attrs: nounwind uwtable
define hidden range(i32 0, 2) i32 @_PyAST_Validate(ptr noundef readonly captures(none) %0) local_unnamed_addr #0 {
  %2 = alloca %struct.validator, align 4
  call void @llvm.lifetime.start.p0(i64 8, ptr nonnull %2) #5
  %3 = tail call align 8 ptr @llvm.threadlocal.address.p0(ptr align 8 @_Py_tss_tstate)
  %4 = load ptr, ptr %3, align 8, !tbaa !4
  %.not = icmp eq ptr %4, null
  br i1 %.not, label %.thread, label %5

5:                                                ; preds = %1
  %6 = getelementptr inbounds nuw i8, ptr %4, i64 52
  %7 = load i32, ptr %6, align 4, !tbaa !9
  %8 = sub i32 10000, %7
  store i32 %8, ptr %2, align 4, !tbaa !21
  %9 = getelementptr inbounds nuw i8, ptr %2, i64 4
  store i32 10000, ptr %9, align 4, !tbaa !23
  %10 = load i32, ptr %0, align 8, !tbaa !24
  switch i32 %10, label %validate_exprs.exit [
    i32 1, label %11
    i32 2, label %15
    i32 3, label %19
    i32 4, label %23
  ]

11:                                               ; preds = %5
  %12 = getelementptr inbounds nuw i8, ptr %0, i64 8
  %13 = load ptr, ptr %12, align 8, !tbaa !26
  %14 = call fastcc i32 @validate_stmts(ptr noundef %2, ptr noundef %13)
  br label %40

15:                                               ; preds = %5
  %16 = getelementptr inbounds nuw i8, ptr %0, i64 8
  %17 = load ptr, ptr %16, align 8, !tbaa !26
  %18 = call fastcc i32 @validate_stmts(ptr noundef %2, ptr noundef %17)
  br label %40

19:                                               ; preds = %5
  %20 = getelementptr inbounds nuw i8, ptr %0, i64 8
  %21 = load ptr, ptr %20, align 8, !tbaa !26
  %22 = call fastcc i32 @validate_expr(ptr noundef %2, ptr noundef %21, i32 noundef 1)
  br label %40

23:                                               ; preds = %5
  %24 = getelementptr inbounds nuw i8, ptr %0, i64 8
  %25 = load ptr, ptr %24, align 8, !tbaa !26
  %26 = icmp eq ptr %25, null
  %27 = getelementptr inbounds nuw i8, ptr %25, i64 16
  br i1 %26, label %.loopexit, label %.split.i

.split.i:                                         ; preds = %23
  %28 = load i64, ptr %25, align 8, !tbaa !27
  %.not2026.i = icmp slt i64 %28, 1
  br i1 %.not2026.i, label %.loopexit, label %.lr.ph.split.us.i

.lr.ph.split.us.i:                                ; preds = %.split.i, %.critedge.us33.i
  %.01527.us.i = phi i64 [ %33, %.critedge.us33.i ], [ 0, %.split.i ]
  %29 = getelementptr [1 x ptr], ptr %27, i64 0, i64 %.01527.us.i
  %30 = load ptr, ptr %29, align 8, !tbaa !29
  %.not.us31.i = icmp eq ptr %30, null
  br i1 %.not.us31.i, label %.split24.i, label %31

31:                                               ; preds = %.lr.ph.split.us.i
  %32 = call fastcc i32 @validate_expr(ptr noundef nonnull %2, ptr noundef nonnull %30, i32 noundef 1) #6
  %.not19.us32.i = icmp eq i32 %32, 0
  br i1 %.not19.us32.i, label %.thread, label %.critedge.us33.i

.critedge.us33.i:                                 ; preds = %31
  %33 = add nuw nsw i64 %.01527.us.i, 1
  %34 = load i64, ptr %25, align 8, !tbaa !27
  %.not20.us34.not.i = icmp slt i64 %33, %34
  br i1 %.not20.us34.not.i, label %.lr.ph.split.us.i, label %.loopexit, !llvm.loop !31

.split24.i:                                       ; preds = %.lr.ph.split.us.i
  %35 = load ptr, ptr @PyExc_ValueError, align 8, !tbaa !33
  tail call void @PyErr_SetString(ptr noundef %35, ptr noundef nonnull @.str.73) #5
  br label %.thread

.loopexit:                                        ; preds = %.critedge.us33.i, %23, %.split.i
  %36 = getelementptr inbounds nuw i8, ptr %0, i64 16
  %37 = load ptr, ptr %36, align 8, !tbaa !26
  %38 = call fastcc i32 @validate_expr(ptr noundef %2, ptr noundef %37, i32 noundef 1)
  br label %40

validate_exprs.exit:                              ; preds = %5
  %39 = load ptr, ptr @PyExc_SystemError, align 8, !tbaa !33
  tail call void @PyErr_SetString(ptr noundef %39, ptr noundef nonnull @.str) #5
  br label %.thread

40:                                               ; preds = %19, %15, %11, %.loopexit
  %.015.ph = phi i32 [ %38, %.loopexit ], [ %14, %11 ], [ %18, %15 ], [ %22, %19 ]
  %.not20 = icmp eq i32 %.015.ph, 0
  br i1 %.not20, label %.thread, label %41

41:                                               ; preds = %40
  %42 = load i32, ptr %2, align 4, !tbaa !21
  %.not21 = icmp eq i32 %42, %8
  br i1 %.not21, label %.thread, label %43

43:                                               ; preds = %41
  %44 = load ptr, ptr @PyExc_SystemError, align 8, !tbaa !33
  %45 = tail call ptr (ptr, ptr, ...) @PyErr_Format(ptr noundef %44, ptr noundef nonnull @.str.1, i32 noundef %8, i32 noundef %42) #5
  br label %.thread

.thread:                                          ; preds = %31, %.split24.i, %validate_exprs.exit, %43, %41, %40, %1
  %.0 = phi i32 [ 0, %1 ], [ 0, %validate_exprs.exit ], [ 0, %43 ], [ 1, %41 ], [ 0, %40 ], [ 0, %.split24.i ], [ 0, %31 ]
  call void @llvm.lifetime.end.p0(i64 8, ptr nonnull %2) #5
  ret i32 %.0
}